target datalayout = "e-m:e-p270:32:32-p271:32:32-p272:64:64-i64:64-i128:128-f80:128-n8:16:32:64-S128"
target triple = "x86_64-pc-linux-gnu"

%struct._lv_textarea_t = type { %struct._lv_obj_t, ptr, ptr, ptr, ptr, ptr, i32, i32, %struct.anon, i32, i32, i8 }
%struct._lv_obj_t = type { ptr, ptr, ptr, ptr, ptr, %struct.lv_area_t, i32, i16, i16 }
%struct.lv_area_t = type { i32, i32, i32, i32 }
%struct.anon = type { i32, i32, %struct.lv_area_t, i32, i8 }

; Function Attrs: nounwind uwtable
define i32 @lv_textarea_get_cursor_pos(ptr noundef %0) #0 {
  %2 = alloca ptr, align 8
  %3 = alloca ptr, align 8
  store ptr %0, ptr %2, align 8, !tbaa !8
  br label %4

4:                                                ; preds = %1
  %5 = load ptr, ptr %2, align 8, !tbaa !8
  %6 = icmp ne ptr %5, null
  br i1 %6, label %11, label %7

7:                                                ; preds = %4
  br label %8

8:                                                ; preds = %7
  br label %9

9:                                                ; preds = %8
  br label %10

10:                                               ; preds = %9, %10
  br label %10

11:                                               ; preds = %4
  br label %12

12:                                               ; preds = %11
  call void @llvm.lifetime.start.p0(i64 8, ptr %3) #6
  %13 = load ptr, ptr %2, align 8, !tbaa !8
  store ptr %13, ptr %3, align 8, !tbaa !10
  %14 = load ptr, ptr %3, align 8, !tbaa !10
  %15 = getelementptr inbounds nuw %struct._lv_textarea_t, ptr %14, i32 0, i32 8
  %16 = getelementptr inbounds nuw %struct.anon, ptr %15, i32 0, i32 1
  %17 = load i32, ptr %16, align 4, !tbaa !26
  call void @llvm.lifetime.end.p0(i64 8, ptr %3) #6
  ret i32 %17
}